target datalayout = "e-m:e-p270:32:32-p271:32:32-p272:64:64-i64:64-i128:128-f80:128-n8:16:32:64-S128"
target triple = "x86_64-pc-linux-gnu"

%struct._xmlNode = type { ptr, i32, ptr, ptr, ptr, ptr, ptr, ptr, ptr, ptr, ptr, ptr, ptr, ptr, i16, i16 }
%struct._zval_struct = type { %union._zend_value, %union.anon, %union.anon.2 }
%union._zend_value = type { i64 }
%union.anon = type { i32 }
%union.anon.2 = type { i32 }
%struct._dom_object = type { ptr, ptr, ptr, %struct._zend_object }
%struct._zend_object = type { %struct._zend_refcounted_h, i32, ptr, ptr, ptr, [1 x %struct._zval_struct] }
%struct._zend_refcounted_h = type { i32, %union.anon.3 }
%union.anon.3 = type { i32 }
%struct._php_libxml_ref_obj = type { ptr, ptr, %struct.php_libxml_cache_tag, i32, i8 }
%struct.php_libxml_cache_tag = type { i64 }

@xmlFree = external global ptr, align 8

; Function Attrs: nounwind uwtable
define internal ptr @php_dom_obj_from_obj(ptr noundef %0) #0 {
  %2 = alloca ptr, align 8
  store ptr %0, ptr %2, align 8
  %3 = load ptr, ptr %2, align 8
  %4 = getelementptr inbounds i8, ptr %3, i64 -24
  ret ptr %4
}

; Function Attrs: nounwind uwtable
define internal void @dom_fragment_assign_parent_node(ptr noundef %0, ptr noundef %1) #0 {
  %3 = alloca ptr, align 8
  %4 = alloca ptr, align 8
  %5 = alloca ptr, align 8
  store ptr %0, ptr %3, align 8
  store ptr %1, ptr %4, align 8
  %6 = load ptr, ptr %4, align 8
  %7 = getelementptr inbounds %struct._xmlNode, ptr %6, i32 0, i32 3
  %8 = load ptr, ptr %7, align 8
  store ptr %8, ptr %5, align 8
  br label %9

9:                                                ; preds = %22, %2
  %10 = load ptr, ptr %5, align 8
  %11 = icmp ne ptr %10, null
  br i1 %11, label %12, label %26

12:                                               ; preds = %9
  %13 = load ptr, ptr %3, align 8
  %14 = load ptr, ptr %5, align 8
  %15 = getelementptr inbounds %struct._xmlNode, ptr %14, i32 0, i32 5
  store ptr %13, ptr %15, align 8
  %16 = load ptr, ptr %5, align 8
  %17 = load ptr, ptr %4, align 8
  %18 = getelementptr inbounds %struct._xmlNode, ptr %17, i32 0, i32 4
  %19 = load ptr, ptr %18, align 8
  %20 = icmp eq ptr %16, %19
  br i1 %20, label %21, label %22

21:                                               ; preds = %12
  br label %26

22:                                               ; preds = %12
  %23 = load ptr, ptr %5, align 8
  %24 = getelementptr inbounds %struct._xmlNode, ptr %23, i32 0, i32 6
  %25 = load ptr, ptr %24, align 8
  store ptr %25, ptr %5, align 8
  br label %9

26:                                               ; preds = %21, %9
  %27 = load ptr, ptr %4, align 8
  %28 = getelementptr inbounds %struct._xmlNode, ptr %27, i32 0, i32 3
  store ptr null, ptr %28, align 8
  %29 = load ptr, ptr %4, align 8
  %30 = getelementptr inbounds %struct._xmlNode, ptr %29, i32 0, i32 4
  store ptr null, ptr %30, align 8
  ret void
}

; Function Attrs: nounwind uwtable
define internal void @dom_pre_insert(ptr noundef %0, ptr noundef %1, ptr noundef %2, ptr noundef %3) #0 {
  %5 = alloca ptr, align 8
  %6 = alloca ptr, align 8
  %7 = alloca ptr, align 8
  %8 = alloca ptr, align 8
  store ptr %0, ptr %5, align 8
  store ptr %1, ptr %6, align 8
  store ptr %2, ptr %7, align 8
  store ptr %3, ptr %8, align 8
  %9 = load ptr, ptr %5, align 8
  %10 = icmp ne ptr %9, null
  br i1 %10, label %37, label %11

11:                                               ; preds = %4
  %12 = load ptr, ptr %6, align 8
  %13 = getelementptr inbounds %struct._xmlNode, ptr %12, i32 0, i32 3
  %14 = load ptr, ptr %13, align 8
  %15 = icmp ne ptr %14, null
  br i1 %15, label %16, label %27

16:                                               ; preds = %11
  %17 = load ptr, ptr %6, align 8
  %18 = getelementptr inbounds %struct._xmlNode, ptr %17, i32 0, i32 4
  %19 = load ptr, ptr %18, align 8
  %20 = load ptr, ptr %7, align 8
  %21 = getelementptr inbounds %struct._xmlNode, ptr %20, i32 0, i32 7
  store ptr %19, ptr %21, align 8
  %22 = load ptr, ptr %7, align 8
  %23 = load ptr, ptr %6, align 8
  %24 = getelementptr inbounds %struct._xmlNode, ptr %23, i32 0, i32 4
  %25 = load ptr, ptr %24, align 8
  %26 = getelementptr inbounds %struct._xmlNode, ptr %25, i32 0, i32 6
  store ptr %22, ptr %26, align 8
  br label %31

27:                                               ; preds = %11
  %28 = load ptr, ptr %7, align 8
  %29 = load ptr, ptr %6, align 8
  %30 = getelementptr inbounds %struct._xmlNode, ptr %29, i32 0, i32 3
  store ptr %28, ptr %30, align 8
  br label %31

31:                                               ; preds = %27, %16
  %32 = load ptr, ptr %8, align 8
  %33 = getelementptr inbounds %struct._xmlNode, ptr %32, i32 0, i32 4
  %34 = load ptr, ptr %33, align 8
  %35 = load ptr, ptr %6, align 8
  %36 = getelementptr inbounds %struct._xmlNode, ptr %35, i32 0, i32 4
  store ptr %34, ptr %36, align 8
  br label %74

37:                                               ; preds = %4
  %38 = load ptr, ptr %5, align 8
  %39 = load ptr, ptr %8, align 8
  %40 = getelementptr inbounds %struct._xmlNode, ptr %39, i32 0, i32 4
  %41 = load ptr, ptr %40, align 8
  %42 = getelementptr inbounds %struct._xmlNode, ptr %41, i32 0, i32 6
  store ptr %38, ptr %42, align 8
  %43 = load ptr, ptr %5, align 8
  %44 = getelementptr inbounds %struct._xmlNode, ptr %43, i32 0, i32 7
  %45 = load ptr, ptr %44, align 8
  %46 = icmp ne ptr %45, null
  br i1 %46, label %47, label %58

47:                                               ; preds = %37
  %48 = load ptr, ptr %7, align 8
  %49 = load ptr, ptr %5, align 8
  %50 = getelementptr inbounds %struct._xmlNode, ptr %49, i32 0, i32 7
  %51 = load ptr, ptr %50, align 8
  %52 = getelementptr inbounds %struct._xmlNode, ptr %51, i32 0, i32 6
  store ptr %48, ptr %52, align 8
  %53 = load ptr, ptr %5, align 8
  %54 = getelementptr inbounds %struct._xmlNode, ptr %53, i32 0, i32 7
  %55 = load ptr, ptr %54, align 8
  %56 = load ptr, ptr %7, align 8
  %57 = getelementptr inbounds %struct._xmlNode, ptr %56, i32 0, i32 7
  store ptr %55, ptr %57, align 8
  br label %58

58:                                               ; preds = %47, %37
  %59 = load ptr, ptr %8, align 8
  %60 = getelementptr inbounds %struct._xmlNode, ptr %59, i32 0, i32 4
  %61 = load ptr, ptr %60, align 8
  %62 = load ptr, ptr %5, align 8
  %63 = getelementptr inbounds %struct._xmlNode, ptr %62, i32 0, i32 7
  store ptr %61, ptr %63, align 8
  %64 = load ptr, ptr %6, align 8
  %65 = getelementptr inbounds %struct._xmlNode, ptr %64, i32 0, i32 3
  %66 = load ptr, ptr %65, align 8
  %67 = load ptr, ptr %5, align 8
  %68 = icmp eq ptr %66, %67
  br i1 %68, label %69, label %73

69:                                               ; preds = %58
  %70 = load ptr, ptr %7, align 8
  %71 = load ptr, ptr %6, align 8
  %72 = getelementptr inbounds %struct._xmlNode, ptr %71, i32 0, i32 3
  store ptr %70, ptr %72, align 8
  br label %73

73:                                               ; preds = %69, %58
  br label %74

74:                                               ; preds = %73, %31
  ret void
}

; Function Attrs: nounwind uwtable
define internal zeroext i1 @dom_is_node_in_list(ptr noundef %0, i32 noundef %1, ptr noundef %2) #0 {
  %4 = alloca ptr, align 8
  %5 = alloca i1, align 1
  %6 = alloca ptr, align 8
  %7 = alloca i32, align 4
  %8 = alloca ptr, align 8
  %9 = alloca i32, align 4
  store ptr %0, ptr %6, align 8
  store i32 %1, ptr %7, align 4
  store ptr %2, ptr %8, align 8
  store i32 0, ptr %9, align 4
  br label %10

10:                                               ; preds = %38, %3
  %11 = load i32, ptr %9, align 4
  %12 = load i32, ptr %7, align 4
  %13 = icmp ult i32 %11, %12
  br i1 %13, label %14, label %41

14:                                               ; preds = %10
  %15 = load ptr, ptr %6, align 8
  %16 = load i32, ptr %9, align 4
  %17 = zext i32 %16 to i64
  %18 = getelementptr inbounds %struct._zval_struct, ptr %15, i64 %17
  store ptr %18, ptr %4, align 8
  %19 = load ptr, ptr %4, align 8
  %20 = getelementptr inbounds %struct._zval_struct, ptr %19, i32 0, i32 1
  %21 = load i8, ptr %20, align 8
  %22 = zext i8 %21 to i32
  %23 = icmp eq i32 %22, 8
  br i1 %23, label %24, label %37

24:                                               ; preds = %14
  %25 = load ptr, ptr %6, align 8
  %26 = load i32, ptr %9, align 4
  %27 = zext i32 %26 to i64
  %28 = getelementptr inbounds %struct._zval_struct, ptr %25, i64 %27
  %29 = getelementptr inbounds %struct._zval_struct, ptr %28, i32 0, i32 0
  %30 = load ptr, ptr %29, align 8
  %31 = call ptr @php_dom_obj_from_obj(ptr noundef %30)
  %32 = call ptr @dom_object_get_node(ptr noundef %31)
  %33 = load ptr, ptr %8, align 8
  %34 = icmp eq ptr %32, %33
  br i1 %34, label %35, label %36

35:                                               ; preds = %24
  store i1 true, ptr %5, align 1
  br label %42

36:                                               ; preds = %24
  br label %37

37:                                               ; preds = %36, %14
  br label %38

38:                                               ; preds = %37
  %39 = load i32, ptr %9, align 4
  %40 = add i32 %39, 1
  store i32 %40, ptr %9, align 4
  br label %10

41:                                               ; preds = %10
  store i1 false, ptr %5, align 1
  br label %42

42:                                               ; preds = %41, %35
  %43 = load i1, ptr %5, align 1
  ret i1 %43
}

; Function Attrs: nounwind uwtable
define hidden void @dom_parent_node_after(ptr noundef %0, ptr noundef %1, i32 noundef %2) #0 {
  %4 = alloca ptr, align 8
  %5 = alloca ptr, align 8
  %6 = alloca ptr, align 8
  %7 = alloca i32, align 4
  %8 = alloca ptr, align 8
  %9 = alloca ptr, align 8
  %10 = alloca ptr, align 8
  %11 = alloca ptr, align 8
  %12 = alloca ptr, align 8
  %13 = alloca ptr, align 8
  %14 = alloca ptr, align 8
  store ptr %0, ptr %5, align 8
  store ptr %1, ptr %6, align 8
  store i32 %2, ptr %7, align 4
  %15 = load ptr, ptr %5, align 8
  %16 = call ptr @dom_object_get_node(ptr noundef %15)
  store ptr %16, ptr %8, align 8
  %17 = load ptr, ptr %8, align 8
  %18 = getelementptr inbounds %struct._xmlNode, ptr %17, i32 0, i32 5
  %19 = load ptr, ptr %18, align 8
  store ptr %19, ptr %10, align 8
  %20 = load ptr, ptr %5, align 8
  %21 = getelementptr inbounds %struct._dom_object, ptr %20, i32 0, i32 1
  %22 = load ptr, ptr %21, align 8
  %23 = load ptr, ptr %10, align 8
  %24 = load ptr, ptr %6, align 8
  %25 = load i32, ptr %7, align 4
  %26 = call i32 @dom_sanity_check_node_list_for_insertion(ptr noundef %22, ptr noundef %23, ptr noundef %24, i32 noundef %25)
  %27 = icmp ne i32 %26, 0
  %28 = xor i1 %27, true
  %29 = xor i1 %28, true
  %30 = zext i1 %29 to i32
  %31 = sext i32 %30 to i64
  %32 = icmp ne i64 %31, 0
  br i1 %32, label %33, label %34

33:                                               ; preds = %3
  br label %99

34:                                               ; preds = %3
  %35 = load ptr, ptr %8, align 8
  %36 = getelementptr inbounds %struct._xmlNode, ptr %35, i32 0, i32 6
  %37 = load ptr, ptr %36, align 8
  store ptr %37, ptr %13, align 8
  br label %38

38:                                               ; preds = %47, %34
  %39 = load ptr, ptr %13, align 8
  %40 = icmp ne ptr %39, null
  br i1 %40, label %41, label %51

41:                                               ; preds = %38
  %42 = load ptr, ptr %6, align 8
  %43 = load i32, ptr %7, align 4
  %44 = load ptr, ptr %13, align 8
  %45 = call zeroext i1 @dom_is_node_in_list(ptr noundef %42, i32 noundef %43, ptr noundef %44)
  br i1 %45, label %47, label %46

46:                                               ; preds = %41
  br label %51

47:                                               ; preds = %41
  %48 = load ptr, ptr %13, align 8
  %49 = getelementptr inbounds %struct._xmlNode, ptr %48, i32 0, i32 6
  %50 = load ptr, ptr %49, align 8
  store ptr %50, ptr %13, align 8
  br label %38

51:                                               ; preds = %46, %38
  %52 = load ptr, ptr %8, align 8
  %53 = getelementptr inbounds %struct._xmlNode, ptr %52, i32 0, i32 8
  %54 = load ptr, ptr %53, align 8
  store ptr %54, ptr %12, align 8
  %55 = load ptr, ptr %5, align 8
  %56 = getelementptr inbounds %struct._dom_object, ptr %55, i32 0, i32 1
  %57 = load ptr, ptr %56, align 8
  store ptr %57, ptr %4, align 8
  %58 = load ptr, ptr %4, align 8
  %59 = icmp ne ptr %58, null
  br i1 %59, label %61, label %60

60:                                               ; preds = %51
  br label %66

61:                                               ; preds = %51
  %62 = load ptr, ptr %4, align 8
  %63 = getelementptr inbounds %struct._php_libxml_ref_obj, ptr %62, i32 0, i32 2
  %64 = load i64, ptr %63, align 8
  %65 = add i64 %64, 1
  store i64 %65, ptr %63, align 8
  br label %66

66:                                               ; preds = %61, %60
  %67 = load ptr, ptr %5, align 8
  %68 = getelementptr inbounds %struct._dom_object, ptr %67, i32 0, i32 1
  %69 = load ptr, ptr %68, align 8
  %70 = load ptr, ptr %10, align 8
  %71 = load ptr, ptr %6, align 8
  %72 = load i32, ptr %7, align 4
  %73 = call ptr @dom_zvals_to_fragment(ptr noundef %69, ptr noundef %70, ptr noundef %71, i32 noundef %72)
  store ptr %73, ptr %11, align 8
  %74 = load ptr, ptr %11, align 8
  %75 = icmp eq ptr %74, null
  br i1 %75, label %76, label %77

76:                                               ; preds = %66
  br label %99

77:                                               ; preds = %66
  %78 = load ptr, ptr %11, align 8
  %79 = getelementptr inbounds %struct._xmlNode, ptr %78, i32 0, i32 3
  %80 = load ptr, ptr %79, align 8
  store ptr %80, ptr %9, align 8
  %81 = load ptr, ptr %9, align 8
  %82 = icmp ne ptr %81, null
  br i1 %82, label %83, label %96

83:                                               ; preds = %77
  %84 = load ptr, ptr %11, align 8
  %85 = getelementptr inbounds %struct._xmlNode, ptr %84, i32 0, i32 4
  %86 = load ptr, ptr %85, align 8
  store ptr %86, ptr %14, align 8
  %87 = load ptr, ptr %13, align 8
  %88 = load ptr, ptr %10, align 8
  %89 = load ptr, ptr %9, align 8
  %90 = load ptr, ptr %11, align 8
  call void @dom_pre_insert(ptr noundef %87, ptr noundef %88, ptr noundef %89, ptr noundef %90)
  %91 = load ptr, ptr %10, align 8
  %92 = load ptr, ptr %11, align 8
  call void @dom_fragment_assign_parent_node(ptr noundef %91, ptr noundef %92)
  %93 = load ptr, ptr %12, align 8
  %94 = load ptr, ptr %9, align 8
  %95 = load ptr, ptr %14, align 8
  call void @dom_reconcile_ns_list(ptr noundef %93, ptr noundef %94, ptr noundef %95)
  br label %96

96:                                               ; preds = %83, %77
  %97 = load ptr, ptr @xmlFree, align 8
  %98 = load ptr, ptr %11, align 8
  call void %97(ptr noundef %98)
  br label %99

99:                                               ; preds = %96, %76, %33
  ret void
}