; Function Attrs: nounwind uwtable
define hidden void @dom_parent_node_after(ptr noundef %0, ptr noundef %1, i32 noundef %2) local_unnamed_addr #0 {
  %4 = tail call ptr @dom_object_get_node(ptr noundef %0) #3
  %5 = getelementptr inbounds i8, ptr %4, i64 40
  %6 = load ptr, ptr %5, align 8
  %7 = getelementptr inbounds i8, ptr %0, i64 8
  %8 = load ptr, ptr %7, align 8
  %9 = tail call fastcc i32 @dom_sanity_check_node_list_for_insertion(ptr noundef %8, ptr noundef %6, ptr noundef %1, i32 noundef %2), !range !4
  %.not = icmp eq i32 %9, 0
  br i1 %.not, label %.preheader, label %72

.preheader:                                       ; preds = %3
  %.not.i = icmp eq i32 %2, 0
  %10 = zext i32 %2 to i64
  br i1 %.not.i, label %.preheader.split.us, label %.preheader.split

.preheader.split.us:                              ; preds = %.preheader
  %.0.in.us = getelementptr inbounds i8, ptr %4, i64 48
  %.0.us = load ptr, ptr %.0.in.us, align 8
  %.not36.us = icmp eq ptr %.0.us, null
  br label %dom_is_node_in_list.exit.thread

.preheader.split:                                 ; preds = %.preheader, %dom_is_node_in_list.exit
  %.pn = phi ptr [ %.0, %dom_is_node_in_list.exit ], [ %4, %.preheader ]
  %.0.in = getelementptr inbounds i8, ptr %.pn, i64 48
  %.0 = load ptr, ptr %.0.in, align 8
  %.not36 = icmp eq ptr %.0, null
  br i1 %.not36, label %dom_is_node_in_list.exit.thread, label %.lr.ph.i

.lr.ph.i:                                         ; preds = %.preheader.split, %21
  %indvars.iv.i = phi i64 [ %indvars.iv.next.i, %21 ], [ 0, %.preheader.split ]
  %11 = phi i1 [ %22, %21 ], [ true, %.preheader.split ]
  %12 = getelementptr inbounds %struct._zval_struct, ptr %1, i64 %indvars.iv.i
  %13 = getelementptr inbounds i8, ptr %12, i64 8
  %14 = load i8, ptr %13, align 8
  %15 = icmp eq i8 %14, 8
  br i1 %15, label %16, label %21

16:                                               ; preds = %.lr.ph.i
  %17 = load ptr, ptr %12, align 8
  %18 = getelementptr inbounds i8, ptr %17, i64 -24
  %19 = tail call ptr @dom_object_get_node(ptr noundef nonnull %18) #3
  %20 = icmp eq ptr %19, %.0
  br i1 %20, label %dom_is_node_in_list.exit, label %21

21:                                               ; preds = %16, %.lr.ph.i
  %indvars.iv.next.i = add nuw nsw i64 %indvars.iv.i, 1
  %22 = icmp ult i64 %indvars.iv.next.i, %10
  %exitcond.not.i = icmp eq i64 %indvars.iv.next.i, %10
  br i1 %exitcond.not.i, label %dom_is_node_in_list.exit, label %.lr.ph.i

dom_is_node_in_list.exit:                         ; preds = %16, %21
  %.lcssa.i = phi i1 [ %22, %21 ], [ %11, %16 ]
  br i1 %.lcssa.i, label %.preheader.split, label %dom_is_node_in_list.exit.thread

dom_is_node_in_list.exit.thread:                  ; preds = %.preheader.split, %dom_is_node_in_list.exit, %.preheader.split.us
  %.us-phi = phi ptr [ %.0.us, %.preheader.split.us ], [ null, %.preheader.split ], [ %.0, %dom_is_node_in_list.exit ]
  %.us-phi43 = phi i1 [ %.not36.us, %.preheader.split.us ], [ true, %.preheader.split ], [ %.not36, %dom_is_node_in_list.exit ]
  %23 = getelementptr inbounds i8, ptr %4, i64 64
  %24 = load ptr, ptr %23, align 8
  %25 = load ptr, ptr %7, align 8
  %.not37 = icmp eq ptr %25, null
  br i1 %.not37, label %30, label %26

26:                                               ; preds = %dom_is_node_in_list.exit.thread
  %27 = getelementptr inbounds i8, ptr %25, i64 16
  %28 = load i64, ptr %27, align 8
  %29 = add i64 %28, 1
  store i64 %29, ptr %27, align 8
  %.pre = load ptr, ptr %7, align 8
  br label %30

30:                                               ; preds = %dom_is_node_in_list.exit.thread, %26
  %31 = phi ptr [ null, %dom_is_node_in_list.exit.thread ], [ %.pre, %26 ]
  %32 = tail call ptr @dom_zvals_to_fragment(ptr noundef %31, ptr noundef %6, ptr noundef %1, i32 noundef %2)
  %33 = icmp eq ptr %32, null
  br i1 %33, label %72, label %34

34:                                               ; preds = %30
  %35 = getelementptr inbounds i8, ptr %32, i64 24
  %36 = load ptr, ptr %35, align 8
  %.not38 = icmp eq ptr %36, null
  br i1 %.not38, label %70, label %37

37:                                               ; preds = %34
  %38 = getelementptr inbounds i8, ptr %32, i64 32
  %39 = load ptr, ptr %38, align 8
  br i1 %.us-phi43, label %40, label %51

40:                                               ; preds = %37
  %41 = getelementptr inbounds i8, ptr %6, i64 24
  %42 = load ptr, ptr %41, align 8
  %.not24.i = icmp eq ptr %42, null
  br i1 %.not24.i, label %48, label %43

43:                                               ; preds = %40
  %44 = getelementptr inbounds i8, ptr %6, i64 32
  %45 = load ptr, ptr %44, align 8
  %46 = getelementptr inbounds i8, ptr %36, i64 56
  store ptr %45, ptr %46, align 8
  %47 = getelementptr inbounds i8, ptr %45, i64 48
  br label %48

48:                                               ; preds = %43, %40
  %.sink.i = phi ptr [ %47, %43 ], [ %41, %40 ]
  store ptr %36, ptr %.sink.i, align 8
  %49 = load ptr, ptr %38, align 8
  %50 = getelementptr inbounds i8, ptr %6, i64 32
  store ptr %49, ptr %50, align 8
  br label %dom_pre_insert.exit

51:                                               ; preds = %37
  %52 = getelementptr inbounds i8, ptr %39, i64 48
  store ptr %.us-phi, ptr %52, align 8
  %53 = getelementptr inbounds i8, ptr %.us-phi, i64 56
  %54 = load ptr, ptr %53, align 8
  %.not25.i = icmp eq ptr %54, null
  br i1 %.not25.i, label %59, label %55

55:                                               ; preds = %51
  %56 = getelementptr inbounds i8, ptr %54, i64 48
  store ptr %36, ptr %56, align 8
  %57 = load ptr, ptr %53, align 8
  %58 = getelementptr inbounds i8, ptr %36, i64 56
  store ptr %57, ptr %58, align 8
  br label %59

59:                                               ; preds = %55, %51
  %60 = load ptr, ptr %38, align 8
  store ptr %60, ptr %53, align 8
  %61 = getelementptr inbounds i8, ptr %6, i64 24
  %62 = load ptr, ptr %61, align 8
  %63 = icmp eq ptr %62, %.us-phi
  br i1 %63, label %64, label %dom_pre_insert.exit

64:                                               ; preds = %59
  store ptr %36, ptr %61, align 8
  br label %dom_pre_insert.exit

dom_pre_insert.exit:                              ; preds = %48, %59, %64
  %.09.i = load ptr, ptr %35, align 8
  %.not10.i = icmp eq ptr %.09.i, null
  br i1 %.not10.i, label %dom_fragment_assign_parent_node.exit, label %.lr.ph.i40

65:                                               ; preds = %.lr.ph.i40
  %66 = getelementptr inbounds i8, ptr %.011.i, i64 48
  %.0.i = load ptr, ptr %66, align 8
  %.not.i41 = icmp eq ptr %.0.i, null
  br i1 %.not.i41, label %dom_fragment_assign_parent_node.exit, label %.lr.ph.i40

.lr.ph.i40:                                       ; preds = %dom_pre_insert.exit, %65
  %.011.i = phi ptr [ %.0.i, %65 ], [ %.09.i, %dom_pre_insert.exit ]
  %67 = getelementptr inbounds i8, ptr %.011.i, i64 40
  store ptr %6, ptr %67, align 8
  %68 = load ptr, ptr %38, align 8
  %69 = icmp eq ptr %.011.i, %68
  br i1 %69, label %dom_fragment_assign_parent_node.exit, label %65

dom_fragment_assign_parent_node.exit:             ; preds = %65, %.lr.ph.i40, %dom_pre_insert.exit
  tail call void @llvm.memset.p0.i64(ptr noundef nonnull align 8 dereferenceable(16) %35, i8 0, i64 16, i1 false)
  tail call void @dom_reconcile_ns_list(ptr noundef %24, ptr noundef nonnull %36, ptr noundef %39) #3
  br label %70

70:                                               ; preds = %dom_fragment_assign_parent_node.exit, %34
  %71 = load ptr, ptr @xmlFree, align 8
  tail call void %71(ptr noundef nonnull %32) #3
  br label %72

72:                                               ; preds = %30, %3, %70
  ret void
}